(dp1
I39010
F0.70499999999999996
sI11010
F0.68000000000000005
sI28510
F0.76500000000000001
sI23510
F0.70499999999999996
sI5510
F0.66000000000000003
sI35010
F0.75
sI10
F0.54000000000000004
sI19010
F0.68999999999999995
sI10510
F0.72499999999999998
sI33510
F0.70499999999999996
sI5010
F0.64500000000000002
sI36510
F0.68000000000000005
sI22510
F0.73499999999999999
sI15510
F0.68500000000000005
sI25510
F0.68000000000000005
sI26510
F0.75
sI10010
F0.66500000000000004
sI18010
F0.72999999999999998
sI4510
F0.625
sI24010
F0.72499999999999998
sI15010
F0.69999999999999996
sI30510
F0.72999999999999998
sI27510
F0.745
sI21510
F0.75
sI9510
F0.72499999999999998
sI4010
F0.69999999999999996
sI32010
F0.72499999999999998
sI29010
F0.755
sI17010
F0.67500000000000004
sI14510
F0.68999999999999995
sI35510
F0.66000000000000003
sI9010
F0.70499999999999996
sI20510
F0.745
sI3510
F0.69499999999999995
sI37510
F0.78000000000000003
sI34010
F0.75
sI14010
F0.73499999999999999
sI16010
F0.71999999999999997
sI8510
F0.68500000000000005
sI32510
F0.68500000000000005
sI3010
F0.66000000000000003
sI19510
F0.70499999999999996
sI13510
F0.69999999999999996
sI24510
F0.73499999999999999
sI8010
F0.65500000000000003
sI31010
F0.69499999999999995
sI23010
F0.70499999999999996
sI2510
F0.65500000000000003
sI26010
F0.69499999999999995
sI13010
F0.67000000000000004
sI29510
F0.76000000000000001
sI18510
F0.71499999999999997
sI7510
F0.67500000000000004
sI36010
F0.70499999999999996
sI31510
F0.68000000000000005
sI2010
F0.65500000000000003
sI22010
F0.72999999999999998
sI12510
F0.72999999999999998
sI34510
F0.68000000000000005
sI27010
F0.73499999999999999
sI7010
F0.70999999999999996
sI37010
F0.69999999999999996
sI17510
F0.68000000000000005
sI1510
F0.63500000000000001
sI33010
F0.68000000000000005
sI12010
F0.745
sI38010
F0.75
sI39510
F0.65500000000000003
sI21010
F0.69999999999999996
sI6510
F0.68500000000000005
sI25010
F0.72999999999999998
sI1010
F0.67000000000000004
sI16510
F0.67500000000000004
sI11510
F0.71999999999999997
sI6010
F0.67000000000000004
sI30010
F0.71499999999999997
sI28010
F0.70499999999999996
sI510
F0.70499999999999996
sI38510
F0.71499999999999997
s.